; Function Attrs: mustprogress uwtable
define hidden void @_ZN4cvc58internal15NodeDfsIterableC2ENS0_12NodeTemplateILb0EEENS0_10VisitOrderESt8functionIFbS3_EE(ptr noundef nonnull align 8 dereferenceable(48) initializes((0, 12), (16, 48)) %0, ptr noundef readonly captures(none) %1, i32 noundef %2, ptr noundef %3) unnamed_addr #3 align 2 personality ptr @__gxx_personality_v0 {
  %5 = load ptr, ptr %1, align 8, !tbaa !3
  store ptr %5, ptr %0, align 8, !tbaa !3
  %6 = getelementptr inbounds nuw i8, ptr %0, i64 8
  store i32 %2, ptr %6, align 8, !tbaa !69
  %7 = getelementptr inbounds nuw i8, ptr %0, i64 16
  %8 = getelementptr inbounds nuw i8, ptr %0, i64 32
  %9 = getelementptr inbounds nuw i8, ptr %0, i64 40
  %10 = getelementptr inbounds nuw i8, ptr %3, i64 16
  tail call void @llvm.memset.p0.i64(ptr noundef nonnull align 8 dereferenceable(32) %7, i8 0, i64 32, i1 false)
  %11 = load ptr, ptr %10, align 8, !tbaa !35
  %.not.i.i.not.i = icmp eq ptr %11, null
  br i1 %.not.i.i.not.i, label %_ZNSt8functionIFbN4cvc58internal12NodeTemplateILb0EEEEEC2ERKS5_.exit, label %12

12:                                               ; preds = %4
  %13 = invoke noundef zeroext i1 %11(ptr noundef nonnull align 8 dereferenceable(32) %7, ptr noundef nonnull align 8 dereferenceable(32) %3, i32 noundef 2)
          to label %14 unwind label %18

14:                                               ; preds = %12
  %15 = getelementptr inbounds nuw i8, ptr %3, i64 24
  %16 = load ptr, ptr %15, align 8, !tbaa !36
  store ptr %16, ptr %9, align 8, !tbaa !36
  %17 = load ptr, ptr %10, align 8, !tbaa !35
  store ptr %17, ptr %8, align 8, !tbaa !35
  br label %_ZNSt8functionIFbN4cvc58internal12NodeTemplateILb0EEEEEC2ERKS5_.exit

18:                                               ; preds = %12
  %19 = landingpad { ptr, i32 }
          cleanup
  %20 = load ptr, ptr %8, align 8, !tbaa !35
  %.not.i.i = icmp eq ptr %20, null
  br i1 %.not.i.i, label %.body, label %21

21:                                               ; preds = %18
  %22 = invoke noundef zeroext i1 %20(ptr noundef nonnull align 8 dereferenceable(32) %7, ptr noundef nonnull align 8 dereferenceable(32) %7, i32 noundef 3)
          to label %.body unwind label %23

23:                                               ; preds = %21
  %24 = landingpad { ptr, i32 }
          catch ptr null
  %25 = extractvalue { ptr, i32 } %24, 0
  tail call void @__clang_call_terminate(ptr %25) #21
  unreachable

_ZNSt8functionIFbN4cvc58internal12NodeTemplateILb0EEEEEC2ERKS5_.exit: ; preds = %14, %4
  ret void

.body:                                            ; preds = %18, %21
  resume { ptr, i32 } %19
}